target datalayout = "e-m:e-p270:32:32-p271:32:32-p272:64:64-i64:64-i128:128-f80:128-n8:16:32:64-S128"
target triple = "x86_64-pc-linux-gnu"

@fetch_fsck_objects = internal global i32 -1, align 4
@transfer_fsck_objects = internal global i32 -1, align 4

; Function Attrs: nounwind uwtable
define dso_local i32 @fetch_pack_fsck_objects() #0 {
  %1 = alloca i32, align 4
  call void @fetch_pack_setup()
  %2 = load i32, ptr @fetch_fsck_objects, align 4, !tbaa !19
  %3 = icmp sge i32 %2, 0
  br i1 %3, label %4, label %6

4:                                                ; preds = %0
  %5 = load i32, ptr @fetch_fsck_objects, align 4, !tbaa !19
  store i32 %5, ptr %1, align 4
  br label %12

6:                                                ; preds = %0
  %7 = load i32, ptr @transfer_fsck_objects, align 4, !tbaa !19
  %8 = icmp sge i32 %7, 0
  br i1 %8, label %9, label %11

9:                                                ; preds = %6
  %10 = load i32, ptr @transfer_fsck_objects, align 4, !tbaa !19
  store i32 %10, ptr %1, align 4
  br label %12

11:                                               ; preds = %6
  store i32 0, ptr %1, align 4
  br label %12

12:                                               ; preds = %11, %9, %4
  %13 = load i32, ptr %1, align 4
  ret i32 %13
}