; Function Attrs: nounwind uwtable
define dso_local range(i32 0, -2147483648) i32 @fetch_pack_fsck_objects() local_unnamed_addr #0 {
  tail call fastcc void @fetch_pack_setup()
  %1 = load i32, ptr @fetch_fsck_objects, align 4, !tbaa !15
  %2 = load i32, ptr @transfer_fsck_objects, align 4
  %. = tail call i32 @llvm.smax.i32(i32 %2, i32 0)
  %3 = icmp slt i32 %1, 0
  %.0 = select i1 %3, i32 %., i32 %1
  ret i32 %.0
}